target datalayout = "e-m:e-p270:32:32-p271:32:32-p272:64:64-i64:64-i128:128-f80:128-n8:16:32:64-S128"
target triple = "x86_64-unknown-linux-gnu"

%struct.vhost_vring_file = type { i32, i32 }
%struct.vhost_net = type { %struct.vhost_dev, [2 x %struct.vhost_virtqueue], i32, ptr }
%struct.vhost_dev = type { ptr, %struct.MemoryListener, %struct.MemoryListener, ptr, i32, ptr, i32, ptr, ptr, i32, i32, i32, i32, i64, i64, i64, i64, i64, i64, i8, i8, i64, ptr, ptr, ptr, ptr, %struct.anon, %struct.anon.1, %struct.IOMMUNotifier, ptr }
%struct.MemoryListener = type { ptr, ptr, ptr, ptr, ptr, ptr, ptr, ptr, ptr, ptr, ptr, ptr, ptr, ptr, ptr, ptr, ptr, i32, ptr, ptr, %union.anon, %union.anon.0 }
%union.anon = type { %struct.QTailQLink }
%struct.QTailQLink = type { ptr, ptr }
%union.anon.0 = type { %struct.QTailQLink }
%struct.anon = type { ptr, ptr }
%struct.anon.1 = type { ptr }
%struct.IOMMUNotifier = type { ptr, i32, i64, i64, i32, %struct.anon.2 }
%struct.anon.2 = type { ptr, ptr }
%struct.vhost_virtqueue = type { i32, i32, ptr, ptr, ptr, i32, i64, i32, i64, i32, i64, i32, %struct.EventNotifier, %struct.EventNotifier, %struct.EventNotifier, ptr }
%struct.EventNotifier = type { i32, i32, i8 }
%struct.NetClientState = type { ptr, i32, %union.anon.3, ptr, ptr, ptr, ptr, [256 x i8], i8, ptr, i32, i8, i32, i32, i8, i8, i8, %union.anon.4 }
%union.anon.3 = type { %struct.QTailQLink }
%union.anon.4 = type { %struct.QTailQLink }
%struct.NetClientInfo = type { i32, i64, ptr, ptr, ptr, ptr, ptr, ptr, ptr, ptr, ptr, ptr, ptr, ptr, ptr, ptr, ptr, ptr, ptr, ptr, ptr, ptr, ptr, ptr, ptr, ptr, ptr }
%struct.VhostOps = type { i32, ptr, ptr, ptr, ptr, ptr, ptr, ptr, ptr, ptr, ptr, ptr, ptr, ptr, ptr, ptr, ptr, ptr, ptr, ptr, ptr, ptr, ptr, ptr, ptr, ptr, ptr, ptr, ptr, ptr, ptr, ptr, ptr, ptr, ptr, ptr, ptr, ptr, ptr, ptr, ptr, ptr, ptr, ptr, ptr, ptr, ptr, ptr, ptr }

@.str.6 = private unnamed_addr constant [27 x i8] c"../qemu/hw/net/vhost_net.c\00", align 1
@.str.9 = private unnamed_addr constant [10 x i8] c"vhost_net\00", align 1
@__PRETTY_FUNCTION__.get_vhost_net = private unnamed_addr constant [47 x i8] c"VHostNetState *get_vhost_net(NetClientState *)\00", align 1
@.str.10 = private unnamed_addr constant [10 x i8] c"vhost_ops\00", align 1
@__PRETTY_FUNCTION__.vhost_net_virtqueue_restart = private unnamed_addr constant [71 x i8] c"int vhost_net_virtqueue_restart(VirtIODevice *, NetClientState *, int)\00", align 1
@.str.11 = private unnamed_addr constant [33 x i8] c"Error when restarting the queue.\00", align 1
@.str.12 = private unnamed_addr constant [9 x i8] c"ret >= 0\00", align 1

; Function Attrs: nounwind sspstrong uwtable
define dso_local ptr @get_vhost_net(ptr noundef %nc) #0 {
entry:
  %retval = alloca ptr, align 8
  %nc.addr = alloca ptr, align 8
  %vhost_net = alloca ptr, align 8
  store ptr %nc, ptr %nc.addr, align 8
  store ptr null, ptr %vhost_net, align 8
  %0 = load ptr, ptr %nc.addr, align 8
  %tobool = icmp ne ptr %0, null
  br i1 %tobool, label %if.end, label %if.then

if.then:                                          ; preds = %entry
  store ptr null, ptr %retval, align 8
  br label %return

if.end:                                           ; preds = %entry
  %1 = load ptr, ptr %nc.addr, align 8
  %info = getelementptr inbounds %struct.NetClientState, ptr %1, i32 0, i32 0
  %2 = load ptr, ptr %info, align 8
  %type = getelementptr inbounds %struct.NetClientInfo, ptr %2, i32 0, i32 0
  %3 = load i32, ptr %type, align 8
  switch i32 %3, label %sw.default [
    i32 3, label %sw.bb
    i32 12, label %sw.bb1
    i32 13, label %sw.bb6
  ]

sw.bb:                                            ; preds = %if.end
  %4 = load ptr, ptr %nc.addr, align 8
  %call = call ptr @tap_get_vhost_net(ptr noundef %4)
  store ptr %call, ptr %vhost_net, align 8
  br label %sw.epilog

sw.bb1:                                           ; preds = %if.end
  %5 = load ptr, ptr %nc.addr, align 8
  %call2 = call ptr @vhost_user_get_vhost_net(ptr noundef %5)
  store ptr %call2, ptr %vhost_net, align 8
  %6 = load ptr, ptr %vhost_net, align 8
  %tobool3 = icmp ne ptr %6, null
  br i1 %tobool3, label %if.then4, label %if.else

if.then4:                                         ; preds = %sw.bb1
  br label %if.end5

if.else:                                          ; preds = %sw.bb1
  call void @__assert_fail(ptr noundef @.str.9, ptr noundef @.str.6, i32 noundef 523, ptr noundef @__PRETTY_FUNCTION__.get_vhost_net) #8
  unreachable

if.end5:                                          ; preds = %if.then4
  br label %sw.epilog

sw.bb6:                                           ; preds = %if.end
  %7 = load ptr, ptr %nc.addr, align 8
  %call7 = call ptr @vhost_vdpa_get_vhost_net(ptr noundef %7)
  store ptr %call7, ptr %vhost_net, align 8
  %8 = load ptr, ptr %vhost_net, align 8
  %tobool8 = icmp ne ptr %8, null
  br i1 %tobool8, label %if.then9, label %if.else10

if.then9:                                         ; preds = %sw.bb6
  br label %if.end11

if.else10:                                        ; preds = %sw.bb6
  call void @__assert_fail(ptr noundef @.str.9, ptr noundef @.str.6, i32 noundef 529, ptr noundef @__PRETTY_FUNCTION__.get_vhost_net) #8
  unreachable

if.end11:                                         ; preds = %if.then9
  br label %sw.epilog

sw.default:                                       ; preds = %if.end
  br label %sw.epilog

sw.epilog:                                        ; preds = %sw.default, %if.end11, %if.end5, %sw.bb
  %9 = load ptr, ptr %vhost_net, align 8
  store ptr %9, ptr %retval, align 8
  br label %return

return:                                           ; preds = %sw.epilog, %if.then
  %10 = load ptr, ptr %retval, align 8
  ret ptr %10
}

; Function Attrs: nounwind sspstrong uwtable
define dso_local i32 @vhost_net_virtqueue_restart(ptr noundef %vdev, ptr noundef %nc, i32 noundef %vq_index) #0 {
entry:
  %retval = alloca i32, align 4
  %vdev.addr = alloca ptr, align 8
  %nc.addr = alloca ptr, align 8
  %vq_index.addr = alloca i32, align 4
  %net = alloca ptr, align 8
  %vhost_ops = alloca ptr, align 8
  %file = alloca %struct.vhost_vring_file, align 4
  %idx = alloca i32, align 4
  %r = alloca i32, align 4
  %ret = alloca i32, align 4
  store ptr %vdev, ptr %vdev.addr, align 8
  store ptr %nc, ptr %nc.addr, align 8
  store i32 %vq_index, ptr %vq_index.addr, align 4
  %0 = load ptr, ptr %nc.addr, align 8
  %peer = getelementptr inbounds %struct.NetClientState, ptr %0, i32 0, i32 3
  %1 = load ptr, ptr %peer, align 8
  %call = call ptr @get_vhost_net(ptr noundef %1)
  store ptr %call, ptr %net, align 8
  %2 = load ptr, ptr %net, align 8
  %dev = getelementptr inbounds %struct.vhost_net, ptr %2, i32 0, i32 0
  %vhost_ops1 = getelementptr inbounds %struct.vhost_dev, ptr %dev, i32 0, i32 23
  %3 = load ptr, ptr %vhost_ops1, align 8
  store ptr %3, ptr %vhost_ops, align 8
  call void @llvm.memset.p0.i64(ptr align 4 %file, i8 0, i64 8, i1 false)
  %4 = load ptr, ptr %net, align 8
  %dev2 = getelementptr inbounds %struct.vhost_net, ptr %4, i32 0, i32 0
  %started = getelementptr inbounds %struct.vhost_dev, ptr %dev2, i32 0, i32 19
  %5 = load i8, ptr %started, align 8
  %tobool = trunc i8 %5 to i1
  br i1 %tobool, label %if.end, label %if.then

if.then:                                          ; preds = %entry
  store i32 -16, ptr %retval, align 4
  br label %return

if.end:                                           ; preds = %entry
  %6 = load ptr, ptr %vhost_ops, align 8
  %tobool3 = icmp ne ptr %6, null
  br i1 %tobool3, label %if.then4, label %if.else

if.then4:                                         ; preds = %if.end
  br label %if.end5

if.else:                                          ; preds = %if.end
  call void @__assert_fail(ptr noundef @.str.10, ptr noundef @.str.6, i32 noundef 602, ptr noundef @__PRETTY_FUNCTION__.vhost_net_virtqueue_restart) #8
  unreachable

if.end5:                                          ; preds = %if.then4
  %7 = load ptr, ptr %vhost_ops, align 8
  %vhost_get_vq_index = getelementptr inbounds %struct.VhostOps, ptr %7, i32 0, i32 26
  %8 = load ptr, ptr %vhost_get_vq_index, align 8
  %9 = load ptr, ptr %net, align 8
  %dev6 = getelementptr inbounds %struct.vhost_net, ptr %9, i32 0, i32 0
  %10 = load i32, ptr %vq_index.addr, align 4
  %call7 = call i32 %8(ptr noundef %dev6, i32 noundef %10)
  store i32 %call7, ptr %idx, align 4
  %11 = load ptr, ptr %net, align 8
  %dev8 = getelementptr inbounds %struct.vhost_net, ptr %11, i32 0, i32 0
  %12 = load ptr, ptr %vdev.addr, align 8
  %13 = load ptr, ptr %net, align 8
  %dev9 = getelementptr inbounds %struct.vhost_net, ptr %13, i32 0, i32 0
  %vqs = getelementptr inbounds %struct.vhost_dev, ptr %dev9, i32 0, i32 8
  %14 = load ptr, ptr %vqs, align 8
  %15 = load i32, ptr %idx, align 4
  %idx.ext = sext i32 %15 to i64
  %add.ptr = getelementptr %struct.vhost_virtqueue, ptr %14, i64 %idx.ext
  %16 = load ptr, ptr %net, align 8
  %dev10 = getelementptr inbounds %struct.vhost_net, ptr %16, i32 0, i32 0
  %vq_index11 = getelementptr inbounds %struct.vhost_dev, ptr %dev10, i32 0, i32 10
  %17 = load i32, ptr %vq_index11, align 4
  %18 = load i32, ptr %idx, align 4
  %add = add i32 %17, %18
  %call12 = call i32 @vhost_virtqueue_start(ptr noundef %dev8, ptr noundef %12, ptr noundef %add.ptr, i32 noundef %add)
  store i32 %call12, ptr %r, align 4
  %19 = load i32, ptr %r, align 4
  %cmp = icmp slt i32 %19, 0
  br i1 %cmp, label %if.then13, label %if.end14

if.then13:                                        ; preds = %if.end5
  br label %err_start

if.end14:                                         ; preds = %if.end5
  %20 = load ptr, ptr %net, align 8
  %nc15 = getelementptr inbounds %struct.vhost_net, ptr %20, i32 0, i32 3
  %21 = load ptr, ptr %nc15, align 8
  %info = getelementptr inbounds %struct.NetClientState, ptr %21, i32 0, i32 0
  %22 = load ptr, ptr %info, align 8
  %type = getelementptr inbounds %struct.NetClientInfo, ptr %22, i32 0, i32 0
  %23 = load i32, ptr %type, align 8
  %cmp16 = icmp eq i32 %23, 3
  br i1 %cmp16, label %if.then17, label %if.end24

if.then17:                                        ; preds = %if.end14
  %24 = load i32, ptr %idx, align 4
  %index = getelementptr inbounds %struct.vhost_vring_file, ptr %file, i32 0, i32 0
  store i32 %24, ptr %index, align 4
  %25 = load ptr, ptr %net, align 8
  %backend = getelementptr inbounds %struct.vhost_net, ptr %25, i32 0, i32 2
  %26 = load i32, ptr %backend, align 8
  %fd = getelementptr inbounds %struct.vhost_vring_file, ptr %file, i32 0, i32 1
  store i32 %26, ptr %fd, align 4
  %27 = load ptr, ptr %net, align 8
  %dev18 = getelementptr inbounds %struct.vhost_net, ptr %27, i32 0, i32 0
  %call19 = call i32 @vhost_net_set_backend(ptr noundef %dev18, ptr noundef %file)
  store i32 %call19, ptr %r, align 4
  %28 = load i32, ptr %r, align 4
  %cmp20 = icmp slt i32 %28, 0
  br i1 %cmp20, label %if.then21, label %if.end23

if.then21:                                        ; preds = %if.then17
  %call22 = call ptr @__errno_location() #9
  %29 = load i32, ptr %call22, align 4
  %sub = sub i32 0, %29
  store i32 %sub, ptr %r, align 4
  br label %err_start

if.end23:                                         ; preds = %if.then17
  br label %if.end24

if.end24:                                         ; preds = %if.end23, %if.end14
  store i32 0, ptr %retval, align 4
  br label %return

err_start:                                        ; preds = %if.then21, %if.then13
  call void (ptr, ...) @error_report(ptr noundef @.str.11)
  %30 = load ptr, ptr %net, align 8
  %nc25 = getelementptr inbounds %struct.vhost_net, ptr %30, i32 0, i32 3
  %31 = load ptr, ptr %nc25, align 8
  %info26 = getelementptr inbounds %struct.NetClientState, ptr %31, i32 0, i32 0
  %32 = load ptr, ptr %info26, align 8
  %type27 = getelementptr inbounds %struct.NetClientInfo, ptr %32, i32 0, i32 0
  %33 = load i32, ptr %type27, align 8
  %cmp28 = icmp eq i32 %33, 3
  br i1 %cmp28, label %if.then29, label %if.end38

if.then29:                                        ; preds = %err_start
  %fd30 = getelementptr inbounds %struct.vhost_vring_file, ptr %file, i32 0, i32 1
  store i32 -1, ptr %fd30, align 4
  %34 = load i32, ptr %idx, align 4
  %index31 = getelementptr inbounds %struct.vhost_vring_file, ptr %file, i32 0, i32 0
  store i32 %34, ptr %index31, align 4
  %35 = load ptr, ptr %net, align 8
  %dev32 = getelementptr inbounds %struct.vhost_net, ptr %35, i32 0, i32 0
  %call33 = call i32 @vhost_net_set_backend(ptr noundef %dev32, ptr noundef %file)
  store i32 %call33, ptr %ret, align 4
  %36 = load i32, ptr %ret, align 4
  %cmp34 = icmp sge i32 %36, 0
  br i1 %cmp34, label %if.then35, label %if.else36

if.then35:                                        ; preds = %if.then29
  br label %if.end37

if.else36:                                        ; preds = %if.then29
  call void @__assert_fail(ptr noundef @.str.12, ptr noundef @.str.6, i32 noundef 633, ptr noundef @__PRETTY_FUNCTION__.vhost_net_virtqueue_restart) #8
  unreachable

if.end37:                                         ; preds = %if.then35
  br label %if.end38

if.end38:                                         ; preds = %if.end37, %err_start
  %37 = load ptr, ptr %net, align 8
  %dev39 = getelementptr inbounds %struct.vhost_net, ptr %37, i32 0, i32 0
  %38 = load ptr, ptr %vdev.addr, align 8
  call void @vhost_dev_stop(ptr noundef %dev39, ptr noundef %38, i1 noundef zeroext false)
  %39 = load i32, ptr %r, align 4
  store i32 %39, ptr %retval, align 4
  br label %return

return:                                           ; preds = %if.end38, %if.end24, %if.then
  %40 = load i32, ptr %retval, align 4
  ret i32 %40
}