; Function Attrs: nounwind sspstrong uwtable
define dso_local i32 @vhost_net_virtqueue_restart(ptr noundef %vdev, ptr noundef readonly captures(none) %nc, i32 noundef %vq_index) local_unnamed_addr #0 {
entry:
  %file = alloca %struct.vhost_vring_file, align 8
  %peer = getelementptr inbounds nuw i8, ptr %nc, i64 32
  %0 = load ptr, ptr %peer, align 8
  %tobool.not.i = icmp eq ptr %0, null
  br i1 %tobool.not.i, label %get_vhost_net.exit, label %if.end.i

if.end.i:                                         ; preds = %entry
  %1 = load ptr, ptr %0, align 8
  %2 = load i32, ptr %1, align 8
  switch i32 %2, label %get_vhost_net.exit [
    i32 3, label %sw.bb.i
    i32 12, label %sw.bb1.i
    i32 13, label %sw.bb6.i
  ]

sw.bb.i:                                          ; preds = %if.end.i
  %call.i = tail call ptr @tap_get_vhost_net(ptr noundef nonnull %0) #11
  br label %get_vhost_net.exit

sw.bb1.i:                                         ; preds = %if.end.i
  %call2.i = tail call ptr @vhost_user_get_vhost_net(ptr noundef nonnull %0) #11
  %tobool3.not.i = icmp eq ptr %call2.i, null
  br i1 %tobool3.not.i, label %if.else.i, label %get_vhost_net.exit

if.else.i:                                        ; preds = %sw.bb1.i
  tail call void @__assert_fail(ptr noundef nonnull @.str.9, ptr noundef nonnull @.str.6, i32 noundef 523, ptr noundef nonnull @__PRETTY_FUNCTION__.get_vhost_net) #14
  unreachable

sw.bb6.i:                                         ; preds = %if.end.i
  %call7.i = tail call ptr @vhost_vdpa_get_vhost_net(ptr noundef nonnull %0) #11
  %tobool8.not.i = icmp eq ptr %call7.i, null
  br i1 %tobool8.not.i, label %if.else10.i, label %get_vhost_net.exit

if.else10.i:                                      ; preds = %sw.bb6.i
  tail call void @__assert_fail(ptr noundef nonnull @.str.9, ptr noundef nonnull @.str.6, i32 noundef 529, ptr noundef nonnull @__PRETTY_FUNCTION__.get_vhost_net) #14
  unreachable

get_vhost_net.exit:                               ; preds = %entry, %if.end.i, %sw.bb.i, %sw.bb1.i, %sw.bb6.i
  %retval.0.i = phi ptr [ null, %entry ], [ null, %if.end.i ], [ %call7.i, %sw.bb6.i ], [ %call2.i, %sw.bb1.i ], [ %call.i, %sw.bb.i ]
  %vhost_ops1 = getelementptr inbounds nuw i8, ptr %retval.0.i, i64 528
  %3 = load ptr, ptr %vhost_ops1, align 8
  store i64 0, ptr %file, align 8
  %started = getelementptr inbounds nuw i8, ptr %retval.0.i, i64 504
  %4 = load i8, ptr %started, align 8
  %tobool = trunc i8 %4 to i1
  br i1 %tobool, label %if.end, label %return

if.end:                                           ; preds = %get_vhost_net.exit
  %tobool3.not = icmp eq ptr %3, null
  br i1 %tobool3.not, label %if.else, label %if.end5

if.else:                                          ; preds = %if.end
  tail call void @__assert_fail(ptr noundef nonnull @.str.10, ptr noundef nonnull @.str.6, i32 noundef 602, ptr noundef nonnull @__PRETTY_FUNCTION__.vhost_net_virtqueue_restart) #14
  unreachable

if.end5:                                          ; preds = %if.end
  %vhost_get_vq_index = getelementptr inbounds nuw i8, ptr %3, i64 208
  %5 = load ptr, ptr %vhost_get_vq_index, align 8
  %call7 = tail call i32 %5(ptr noundef nonnull %retval.0.i, i32 noundef %vq_index) #11
  %vqs = getelementptr inbounds nuw i8, ptr %retval.0.i, i64 432
  %6 = load ptr, ptr %vqs, align 8
  %idx.ext = sext i32 %call7 to i64
  %add.ptr = getelementptr %struct.vhost_virtqueue, ptr %6, i64 %idx.ext
  %vq_index11 = getelementptr inbounds nuw i8, ptr %retval.0.i, i64 444
  %7 = load i32, ptr %vq_index11, align 4
  %add = add i32 %7, %call7
  %call12 = tail call i32 @vhost_virtqueue_start(ptr noundef nonnull %retval.0.i, ptr noundef %vdev, ptr noundef %add.ptr, i32 noundef %add) #11
  %cmp = icmp slt i32 %call12, 0
  br i1 %cmp, label %err_start, label %if.end14

if.end14:                                         ; preds = %if.end5
  %nc15 = getelementptr inbounds nuw i8, ptr %retval.0.i, i64 904
  %8 = load ptr, ptr %nc15, align 8
  %9 = load ptr, ptr %8, align 8
  %10 = load i32, ptr %9, align 8
  %cmp16 = icmp eq i32 %10, 3
  br i1 %cmp16, label %if.then17, label %return

if.then17:                                        ; preds = %if.end14
  store i32 %call7, ptr %file, align 8
  %backend = getelementptr inbounds nuw i8, ptr %retval.0.i, i64 896
  %11 = load i32, ptr %backend, align 8
  %fd = getelementptr inbounds nuw i8, ptr %file, i64 4
  store i32 %11, ptr %fd, align 4
  %call19 = call i32 @vhost_net_set_backend(ptr noundef nonnull %retval.0.i, ptr noundef nonnull %file) #11
  %cmp20 = icmp slt i32 %call19, 0
  br i1 %cmp20, label %if.then21, label %return

if.then21:                                        ; preds = %if.then17
  %call22 = tail call ptr @__errno_location() #15
  %12 = load i32, ptr %call22, align 4
  %sub = sub i32 0, %12
  br label %err_start

err_start:                                        ; preds = %if.end5, %if.then21
  %r.0 = phi i32 [ %call12, %if.end5 ], [ %sub, %if.then21 ]
  call void (ptr, ...) @error_report(ptr noundef nonnull @.str.11) #11
  %nc25 = getelementptr inbounds nuw i8, ptr %retval.0.i, i64 904
  %13 = load ptr, ptr %nc25, align 8
  %14 = load ptr, ptr %13, align 8
  %15 = load i32, ptr %14, align 8
  %cmp28 = icmp eq i32 %15, 3
  br i1 %cmp28, label %if.then29, label %if.end38

if.then29:                                        ; preds = %err_start
  %fd30 = getelementptr inbounds nuw i8, ptr %file, i64 4
  store i32 -1, ptr %fd30, align 4
  store i32 %call7, ptr %file, align 8
  %call33 = call i32 @vhost_net_set_backend(ptr noundef nonnull %retval.0.i, ptr noundef nonnull %file) #11
  %cmp34 = icmp sgt i32 %call33, -1
  br i1 %cmp34, label %if.end38, label %if.else36

if.else36:                                        ; preds = %if.then29
  call void @__assert_fail(ptr noundef nonnull @.str.12, ptr noundef nonnull @.str.6, i32 noundef 633, ptr noundef nonnull @__PRETTY_FUNCTION__.vhost_net_virtqueue_restart) #14
  unreachable

if.end38:                                         ; preds = %if.then29, %err_start
  call void @vhost_dev_stop(ptr noundef nonnull %retval.0.i, ptr noundef %vdev, i1 noundef zeroext false) #11
  br label %return

return:                                           ; preds = %if.end14, %if.then17, %get_vhost_net.exit, %if.end38
  %retval.0 = phi i32 [ %r.0, %if.end38 ], [ -16, %get_vhost_net.exit ], [ 0, %if.then17 ], [ 0, %if.end14 ]
  ret i32 %retval.0
}